; ModuleID = 'source-C-CXX/59/208.c'
source_filename = "source-C-CXX/59/208.c"
target datalayout = "e-m:e-p270:32:32-p271:32:32-p272:64:64-i64:64-f80:128-n8:16:32:64-S128"
target triple = "x86_64-pc-linux-gnu"

@.str = private unnamed_addr constant [3 x i8] c"%d\00", align 1
@.str.2 = private unnamed_addr constant [7 x i8] c"%d %d\0A\00", align 1
@str = private unnamed_addr constant [6 x i8] c"empty\00", align 1

; Function Attrs: nofree norecurse nosync nounwind readnone sspstrong uwtable
define dso_local i32 @isprime(i32 %0) local_unnamed_addr #0 {
  %2 = icmp slt i32 %0, 4
  br i1 %2, label %11, label %6

3:                                                ; preds = %6
  %4 = mul nsw i32 %10, %10
  %5 = icmp sgt i32 %4, %0
  br i1 %5, label %11, label %6, !llvm.loop !5

6:                                                ; preds = %1, %3
  %7 = phi i32 [ %10, %3 ], [ 2, %1 ]
  %8 = srem i32 %0, %7
  %9 = icmp eq i32 %8, 0
  %10 = add nuw nsw i32 %7, 1
  br i1 %9, label %11, label %3

11:                                               ; preds = %6, %3, %1
  %12 = phi i32 [ 1, %1 ], [ 1, %3 ], [ 0, %6 ]
  ret i32 %12
}

; Function Attrs: argmemonly mustprogress nofree nosync nounwind willreturn
declare void @llvm.lifetime.start.p0i8(i64 immarg, i8* nocapture) #1

; Function Attrs: argmemonly mustprogress nofree nosync nounwind willreturn
declare void @llvm.lifetime.end.p0i8(i64 immarg, i8* nocapture) #1

; Function Attrs: nofree nounwind sspstrong uwtable
define dso_local void @main() local_unnamed_addr #2 {
  %1 = alloca i32, align 4
  %2 = bitcast i32* %1 to i8*
  call void @llvm.lifetime.start.p0i8(i64 4, i8* nonnull %2) #5
  %3 = call i32 (i8*, ...) @__isoc99_scanf(i8* getelementptr inbounds ([3 x i8], [3 x i8]* @.str, i64 0, i64 0), i32* nonnull %1)
  %4 = load i32, i32* %1, align 4, !tbaa !7
  %5 = icmp slt i32 %4, 5
  br i1 %5, label %6, label %8

6:                                                ; preds = %0
  %7 = call i32 @puts(i8* nonnull dereferenceable(1) getelementptr inbounds ([6 x i8], [6 x i8]* @str, i64 0, i64 0))
  br label %37

8:                                                ; preds = %0, %33
  %9 = phi i32 [ %34, %33 ], [ %4, %0 ]
  %10 = phi i32 [ %35, %33 ], [ 5, %0 ]
  %11 = add nsw i32 %10, -2
  %12 = icmp ult i32 %10, 6
  br i1 %12, label %13, label %17

13:                                               ; preds = %14, %8
  br label %25

14:                                               ; preds = %17
  %15 = mul nsw i32 %21, %21
  %16 = icmp sgt i32 %15, %11
  br i1 %16, label %13, label %17, !llvm.loop !5

17:                                               ; preds = %8, %14
  %18 = phi i32 [ %21, %14 ], [ 2, %8 ]
  %19 = urem i32 %11, %18
  %20 = icmp eq i32 %19, 0
  %21 = add nuw nsw i32 %18, 1
  br i1 %20, label %33, label %14

22:                                               ; preds = %25
  %23 = mul nsw i32 %29, %29
  %24 = icmp ugt i32 %23, %10
  br i1 %24, label %30, label %25, !llvm.loop !5

25:                                               ; preds = %13, %22
  %26 = phi i32 [ %29, %22 ], [ 2, %13 ]
  %27 = urem i32 %10, %26
  %28 = icmp eq i32 %27, 0
  %29 = add nuw nsw i32 %26, 1
  br i1 %28, label %33, label %22

30:                                               ; preds = %22
  %31 = call i32 (i8*, ...) @printf(i8* nonnull dereferenceable(1) getelementptr inbounds ([7 x i8], [7 x i8]* @.str.2, i64 0, i64 0), i32 %11, i32 %10)
  %32 = load i32, i32* %1, align 4, !tbaa !7
  br label %33

33:                                               ; preds = %17, %25, %30
  %34 = phi i32 [ %32, %30 ], [ %9, %25 ], [ %9, %17 ]
  %35 = add nuw nsw i32 %10, 2
  %36 = icmp sgt i32 %35, %34
  br i1 %36, label %37, label %8, !llvm.loop !11

37:                                               ; preds = %33, %6
  call void @llvm.lifetime.end.p0i8(i64 4, i8* nonnull %2) #5
  ret void
}

; Function Attrs: nofree nounwind
declare noundef i32 @__isoc99_scanf(i8* nocapture noundef readonly, ...) local_unnamed_addr #3

; Function Attrs: nofree nounwind
declare noundef i32 @printf(i8* nocapture noundef readonly, ...) local_unnamed_addr #3

; Function Attrs: nofree nounwind
declare noundef i32 @puts(i8* nocapture noundef readonly) local_unnamed_addr #4


!llvm.module.flags = !{!0, !1, !2, !3}
!llvm.ident = !{!4}

!0 = !{i32 1, !"wchar_size", i32 4}
!1 = !{i32 7, !"PIC Level", i32 2}
!2 = !{i32 7, !"PIE Level", i32 2}
!3 = !{i32 7, !"uwtable", i32 1}
!4 = !{!"clang version 13.0.0"}
!5 = distinct !{!5, !6}
!6 = !{!"llvm.loop.mustprogress"}
!7 = !{!8, !8, i64 0}
!8 = !{!"int", !9, i64 0}
!9 = !{!"omnipotent char", !10, i64 0}
!10 = !{!"Simple C/C++ TBAA"}
!11 = distinct !{!11, !6}
